; Function Attrs: mustprogress uwtable
define noundef i32 @_ZNK10open_spiel10kuhn_poker9KuhnState13CurrentPlayerEv(ptr noundef nonnull align 8 dereferenceable(120) %0) unnamed_addr #3 align 2 {
  %2 = load ptr, ptr %0, align 8
  %3 = getelementptr inbounds i8, ptr %2, i64 88
  %4 = load ptr, ptr %3, align 8
  %5 = tail call noundef zeroext i1 %4(ptr noundef nonnull align 8 dereferenceable(120) %0)
  br i1 %5, label %22, label %6

6:                                                ; preds = %1
  %7 = getelementptr inbounds nuw i8, ptr %0, i64 32
  %8 = getelementptr inbounds i8, ptr %0, i64 40
  %9 = load ptr, ptr %8, align 8
  %10 = load ptr, ptr %7, align 8
  %11 = ptrtoint ptr %9 to i64
  %12 = ptrtoint ptr %10 to i64
  %13 = sub i64 %11, %12
  %14 = ashr exact i64 %13, 4
  %15 = getelementptr inbounds nuw i8, ptr %0, i64 28
  %16 = load i32, ptr %15, align 4
  %17 = sext i32 %16 to i64
  %18 = icmp ult i64 %14, %17
  br i1 %18, label %22, label %19

19:                                               ; preds = %6
  %20 = urem i64 %14, %17
  %21 = trunc i64 %20 to i32
  br label %22

22:                                               ; preds = %19, %6, %1
  %.0 = phi i32 [ -4, %1 ], [ %21, %19 ], [ -1, %6 ]
  ret i32 %.0
}